; Function Attrs: mustprogress nofree norecurse nosync nounwind willreturn memory(argmem: readwrite) uwtable
define void @_ZN4LIEF5MachO12BinaryParser9copy_fromERNS0_18ChainedBindingInfoES3_(ptr nocapture noundef nonnull readnone align 8 dereferenceable(272) %0, ptr nocapture noundef nonnull writeonly align 8 dereferenceable(88) %1, ptr nocapture noundef nonnull readonly align 8 dereferenceable(88) %2) local_unnamed_addr #5 align 2 {
  %4 = getelementptr inbounds i8, ptr %2, i64 8
  %5 = load ptr, ptr %4, align 8
  %6 = getelementptr inbounds i8, ptr %1, i64 8
  store ptr %5, ptr %6, align 8
  %7 = getelementptr inbounds i8, ptr %2, i64 16
  %8 = load ptr, ptr %7, align 8
  %9 = getelementptr inbounds i8, ptr %1, i64 16
  store ptr %8, ptr %9, align 8
  %10 = getelementptr inbounds i8, ptr %2, i64 48
  %11 = load ptr, ptr %10, align 8
  %12 = getelementptr inbounds i8, ptr %1, i64 48
  store ptr %11, ptr %12, align 8
  ret void
}